target datalayout = "e-m:e-p270:32:32-p271:32:32-p272:64:64-i64:64-i128:128-f80:128-n8:16:32:64-S128"
target triple = "x86_64-pc-linux-gnu"

%struct.slurmd_config = type { ptr, ptr, i32, [4096 x i8], ptr, ptr, ptr, ptr, i16, i16, i16, i16, ptr, i16, i64, i16, i16, i16, i16, i16, i16, i16, i16, i16, i16, i16, i64, i64, i32, i32, i16, ptr, ptr, ptr, i32, ptr, ptr, ptr, ptr, ptr, ptr, ptr, ptr, ptr, ptr, i32, ptr, ptr, i16, i32, i32, %struct.log_options_t, i32, i16, i64, i8, i8, i8, i8, i8, %union.pthread_mutex_t, i16, ptr, %union.pthread_cond_t, ptr, %union.pthread_cond_t, i8, i8, ptr, ptr }
%struct.log_options_t = type { i32, i32, i32, i8, i8, i8, i32 }
%union.pthread_mutex_t = type { %struct.__pthread_mutex_s }
%struct.__pthread_mutex_s = type { i32, i32, i32, i32, i32, i16, i16, %struct.__pthread_internal_list }
%struct.__pthread_internal_list = type { ptr, ptr }
%union.pthread_cond_t = type { %struct.__pthread_cond_s }
%struct.__pthread_cond_s = type { %union.__atomic_wide_counter, %union.__atomic_wide_counter, [2 x i32], [2 x i32], i32, i32, [2 x i32] }
%union.__atomic_wide_counter = type { i64 }

@conf = external global ptr, align 8
@.str.14 = private unnamed_addr constant [11 x i8] c"xcpuinfo.c\00", align 1
@xcpuinfo_mac_to_abs.total_cores = internal global i32 -1, align 4
@xcpuinfo_mac_to_abs.total_cpus = internal global i32 -1, align 4
@__func__.xcpuinfo_mac_to_abs = private unnamed_addr constant [20 x i8] c"xcpuinfo_mac_to_abs\00", align 1
@.str.25 = private unnamed_addr constant [10 x i8] c"%s failed\00", align 1

; Function Attrs: nounwind uwtable
define dso_local i32 @xcpuinfo_mac_to_abs(ptr noundef %0, ptr noundef %1) #0 {
  %3 = alloca ptr, align 8
  %4 = alloca ptr, align 8
  %5 = alloca ptr, align 8
  %6 = alloca ptr, align 8
  %7 = alloca ptr, align 8
  %8 = alloca i32, align 4
  %9 = alloca i32, align 4
  %10 = alloca i32, align 4
  %11 = alloca i32, align 4
  %12 = alloca i32, align 4
  %13 = alloca i32, align 4
  %14 = alloca i32, align 4
  %15 = alloca i32, align 4
  %16 = alloca i32, align 4
  store ptr %0, ptr %3, align 8
  store ptr %1, ptr %4, align 8
  call void @llvm.lifetime.start.p0(i64 8, ptr %5) #9
  store ptr null, ptr %5, align 8
  call void @llvm.lifetime.start.p0(i64 8, ptr %6) #9
  store ptr null, ptr %6, align 8
  call void @llvm.lifetime.start.p0(i64 8, ptr %7) #9
  store ptr null, ptr %7, align 8
  call void @llvm.lifetime.start.p0(i64 4, ptr %8) #9
  store i32 0, ptr %8, align 4
  %17 = load i32, ptr @xcpuinfo_mac_to_abs.total_cores, align 4
  %18 = icmp eq i32 %17, -1
  br i1 %18, label %19, label %33

19:                                               ; preds = %2
  %20 = load ptr, ptr @conf, align 8
  %21 = getelementptr inbounds nuw %struct.slurmd_config, ptr %20, i32 0, i32 10
  %22 = load i16, ptr %21, align 4
  %23 = zext i16 %22 to i32
  %24 = load ptr, ptr @conf, align 8
  %25 = getelementptr inbounds nuw %struct.slurmd_config, ptr %24, i32 0, i32 15
  %26 = load i16, ptr %25, align 8
  %27 = zext i16 %26 to i32
  %28 = mul nsw i32 %23, %27
  store i32 %28, ptr @xcpuinfo_mac_to_abs.total_cores, align 4
  %29 = load ptr, ptr @conf, align 8
  %30 = getelementptr inbounds nuw %struct.slurmd_config, ptr %29, i32 0, i32 30
  %31 = load i16, ptr %30, align 8
  %32 = zext i16 %31 to i32
  store i32 %32, ptr @xcpuinfo_mac_to_abs.total_cpus, align 4
  br label %33

33:                                               ; preds = %19, %2
  %34 = load i32, ptr @xcpuinfo_mac_to_abs.total_cpus, align 4
  %35 = sext i32 %34 to i64
  %36 = call ptr @bit_alloc(i64 noundef %35)
  store ptr %36, ptr %5, align 8
  %37 = load i32, ptr @xcpuinfo_mac_to_abs.total_cpus, align 4
  %38 = sext i32 %37 to i64
  %39 = call ptr @bit_alloc(i64 noundef %38)
  store ptr %39, ptr %6, align 8
  %40 = load i32, ptr @xcpuinfo_mac_to_abs.total_cores, align 4
  %41 = sext i32 %40 to i64
  %42 = call ptr @bit_alloc(i64 noundef %41)
  store ptr %42, ptr %7, align 8
  %43 = load ptr, ptr %5, align 8
  %44 = icmp ne ptr %43, null
  br i1 %44, label %45, label %48

45:                                               ; preds = %33
  %46 = load ptr, ptr %6, align 8
  %47 = icmp ne ptr %46, null
  br i1 %47, label %49, label %48

48:                                               ; preds = %45, %33
  store i32 -1, ptr %8, align 4
  br label %173

49:                                               ; preds = %45
  %50 = load ptr, ptr %5, align 8
  %51 = load ptr, ptr %3, align 8
  %52 = call i32 @bit_unfmt(ptr noundef %50, ptr noundef %51)
  %53 = icmp ne i32 %52, 0
  br i1 %53, label %54, label %55

54:                                               ; preds = %49
  store i32 -1, ptr %8, align 4
  br label %173

55:                                               ; preds = %49
  call void @llvm.lifetime.start.p0(i64 4, ptr %9) #9
  store i32 0, ptr %9, align 4
  br label %56

56:                                               ; preds = %110, %55
  %57 = load i32, ptr %9, align 4
  %58 = load i32, ptr @xcpuinfo_mac_to_abs.total_cores, align 4
  %59 = icmp slt i32 %57, %58
  br i1 %59, label %61, label %60

60:                                               ; preds = %56
  store i32 3, ptr %10, align 4
  call void @llvm.lifetime.end.p0(i64 4, ptr %9) #9
  br label %113

61:                                               ; preds = %56
  call void @llvm.lifetime.start.p0(i64 4, ptr %11) #9
  store i32 0, ptr %11, align 4
  br label %62

62:                                               ; preds = %106, %61
  %63 = load i32, ptr %11, align 4
  %64 = load ptr, ptr @conf, align 8
  %65 = getelementptr inbounds nuw %struct.slurmd_config, ptr %64, i32 0, i32 11
  %66 = load i16, ptr %65, align 2
  %67 = zext i16 %66 to i32
  %68 = icmp slt i32 %63, %67
  br i1 %68, label %70, label %69

69:                                               ; preds = %62
  store i32 6, ptr %10, align 4
  call void @llvm.lifetime.end.p0(i64 4, ptr %11) #9
  br label %109

70:                                               ; preds = %62
  call void @llvm.lifetime.start.p0(i64 4, ptr %12) #9
  call void @llvm.lifetime.start.p0(i64 4, ptr %13) #9
  %71 = load i32, ptr %9, align 4
  %72 = load ptr, ptr @conf, align 8
  %73 = getelementptr inbounds nuw %struct.slurmd_config, ptr %72, i32 0, i32 25
  %74 = load i16, ptr %73, align 4
  %75 = zext i16 %74 to i32
  %76 = mul nsw i32 %71, %75
  %77 = load i32, ptr %11, align 4
  %78 = add nsw i32 %76, %77
  store i32 %78, ptr %13, align 4
  %79 = load i32, ptr @xcpuinfo_mac_to_abs.total_cpus, align 4
  %80 = load i32, ptr %13, align 4
  %81 = srem i32 %80, %79
  store i32 %81, ptr %13, align 4
  %82 = load ptr, ptr %5, align 8
  %83 = load i32, ptr %13, align 4
  %84 = sext i32 %83 to i64
  %85 = call i32 @slurm_bit_test(ptr noundef %82, i64 noundef %84)
  %86 = icmp ne i32 %85, 0
  br i1 %86, label %88, label %87

87:                                               ; preds = %70
  store i32 8, ptr %10, align 4
  br label %103

88:                                               ; preds = %70
  %89 = load ptr, ptr @conf, align 8
  %90 = getelementptr inbounds nuw %struct.slurmd_config, ptr %89, i32 0, i32 32
  %91 = load ptr, ptr %90, align 8
  %92 = load i32, ptr %13, align 4
  %93 = sext i32 %92 to i64
  %94 = getelementptr inbounds i16, ptr %91, i64 %93
  %95 = load i16, ptr %94, align 2
  %96 = zext i16 %95 to i32
  store i32 %96, ptr %12, align 4
  %97 = load i32, ptr @xcpuinfo_mac_to_abs.total_cpus, align 4
  %98 = load i32, ptr %12, align 4
  %99 = srem i32 %98, %97
  store i32 %99, ptr %12, align 4
  %100 = load ptr, ptr %6, align 8
  %101 = load i32, ptr %12, align 4
  %102 = sext i32 %101 to i64
  call void @bit_set(ptr noundef %100, i64 noundef %102)
  store i32 0, ptr %10, align 4
  br label %103

103:                                              ; preds = %88, %87
  call void @llvm.lifetime.end.p0(i64 4, ptr %13) #9
  call void @llvm.lifetime.end.p0(i64 4, ptr %12) #9
  %104 = load i32, ptr %10, align 4
  switch i32 %104, label %201 [
    i32 0, label %105
    i32 8, label %106
  ]

105:                                              ; preds = %103
  br label %106

106:                                              ; preds = %105, %103
  %107 = load i32, ptr %11, align 4
  %108 = add nsw i32 %107, 1
  store i32 %108, ptr %11, align 4
  br label %62, !llvm.loop !26

109:                                              ; preds = %69
  br label %110

110:                                              ; preds = %109
  %111 = load i32, ptr %9, align 4
  %112 = add nsw i32 %111, 1
  store i32 %112, ptr %9, align 4
  br label %56, !llvm.loop !27

113:                                              ; preds = %60
  call void @llvm.lifetime.start.p0(i64 4, ptr %14) #9
  store i32 0, ptr %14, align 4
  br label %114

114:                                              ; preds = %158, %113
  %115 = load i32, ptr %14, align 4
  %116 = load i32, ptr @xcpuinfo_mac_to_abs.total_cores, align 4
  %117 = icmp slt i32 %115, %116
  br i1 %117, label %119, label %118

118:                                              ; preds = %114
  store i32 9, ptr %10, align 4
  call void @llvm.lifetime.end.p0(i64 4, ptr %14) #9
  br label %161

119:                                              ; preds = %114
  call void @llvm.lifetime.start.p0(i64 4, ptr %15) #9
  store i32 0, ptr %15, align 4
  br label %120

120:                                              ; preds = %153, %119
  %121 = load i32, ptr %15, align 4
  %122 = load ptr, ptr @conf, align 8
  %123 = getelementptr inbounds nuw %struct.slurmd_config, ptr %122, i32 0, i32 11
  %124 = load i16, ptr %123, align 2
  %125 = zext i16 %124 to i32
  %126 = icmp slt i32 %121, %125
  br i1 %126, label %128, label %127

127:                                              ; preds = %120
  store i32 12, ptr %10, align 4
  br label %156

128:                                              ; preds = %120
  call void @llvm.lifetime.start.p0(i64 4, ptr %16) #9
  %129 = load i32, ptr %14, align 4
  %130 = load ptr, ptr @conf, align 8
  %131 = getelementptr inbounds nuw %struct.slurmd_config, ptr %130, i32 0, i32 25
  %132 = load i16, ptr %131, align 4
  %133 = zext i16 %132 to i32
  %134 = mul nsw i32 %129, %133
  %135 = load i32, ptr %15, align 4
  %136 = add nsw i32 %134, %135
  store i32 %136, ptr %16, align 4
  %137 = load i32, ptr @xcpuinfo_mac_to_abs.total_cpus, align 4
  %138 = load i32, ptr %16, align 4
  %139 = srem i32 %138, %137
  store i32 %139, ptr %16, align 4
  %140 = load ptr, ptr %6, align 8
  %141 = load i32, ptr %16, align 4
  %142 = sext i32 %141 to i64
  %143 = call i32 @slurm_bit_test(ptr noundef %140, i64 noundef %142)
  %144 = icmp ne i32 %143, 0
  br i1 %144, label %145, label %149

145:                                              ; preds = %128
  %146 = load ptr, ptr %7, align 8
  %147 = load i32, ptr %14, align 4
  %148 = sext i32 %147 to i64
  call void @bit_set(ptr noundef %146, i64 noundef %148)
  store i32 12, ptr %10, align 4
  br label %150

149:                                              ; preds = %128
  store i32 0, ptr %10, align 4
  br label %150

150:                                              ; preds = %149, %145
  call void @llvm.lifetime.end.p0(i64 4, ptr %16) #9
  %151 = load i32, ptr %10, align 4
  switch i32 %151, label %156 [
    i32 0, label %152
  ]

152:                                              ; preds = %150
  br label %153

153:                                              ; preds = %152
  %154 = load i32, ptr %15, align 4
  %155 = add nsw i32 %154, 1
  store i32 %155, ptr %15, align 4
  br label %120, !llvm.loop !28

156:                                              ; preds = %150, %127
  call void @llvm.lifetime.end.p0(i64 4, ptr %15) #9
  br label %157

157:                                              ; preds = %156
  br label %158

158:                                              ; preds = %157
  %159 = load i32, ptr %14, align 4
  %160 = add nsw i32 %159, 1
  store i32 %160, ptr %14, align 4
  br label %114, !llvm.loop !29

161:                                              ; preds = %118
  %162 = load i32, ptr @xcpuinfo_mac_to_abs.total_cores, align 4
  %163 = mul nsw i32 %162, 6
  %164 = sext i32 %163 to i64
  %165 = call ptr @slurm_xcalloc(i64 noundef 1, i64 noundef %164, i1 noundef zeroext true, i1 noundef zeroext false, ptr noundef @.str.14, i32 noundef 1301, ptr noundef @__func__.xcpuinfo_mac_to_abs)
  %166 = load ptr, ptr %4, align 8
  store ptr %165, ptr %166, align 8
  %167 = load ptr, ptr %4, align 8
  %168 = load ptr, ptr %167, align 8
  %169 = load i32, ptr @xcpuinfo_mac_to_abs.total_cores, align 4
  %170 = mul nsw i32 %169, 6
  %171 = load ptr, ptr %7, align 8
  %172 = call ptr @bit_fmt(ptr noundef %168, i32 noundef %170, ptr noundef %171)
  br label %173

173:                                              ; preds = %161, %54, %48
  br label %174

174:                                              ; preds = %173
  %175 = load ptr, ptr %5, align 8
  %176 = icmp ne ptr %175, null
  br i1 %176, label %177, label %178

177:                                              ; preds = %174
  call void @slurm_bit_free(ptr noundef %5)
  br label %178

178:                                              ; preds = %177, %174
  store ptr null, ptr %5, align 8
  br label %179

179:                                              ; preds = %178
  br label %180

180:                                              ; preds = %179
  br label %181

181:                                              ; preds = %180
  %182 = load ptr, ptr %6, align 8
  %183 = icmp ne ptr %182, null
  br i1 %183, label %184, label %185

184:                                              ; preds = %181
  call void @slurm_bit_free(ptr noundef %6)
  br label %185

185:                                              ; preds = %184, %181
  store ptr null, ptr %6, align 8
  br label %186

186:                                              ; preds = %185
  br label %187

187:                                              ; preds = %186
  br label %188

188:                                              ; preds = %187
  %189 = load ptr, ptr %7, align 8
  %190 = icmp ne ptr %189, null
  br i1 %190, label %191, label %192

191:                                              ; preds = %188
  call void @slurm_bit_free(ptr noundef %7)
  br label %192

192:                                              ; preds = %191, %188
  store ptr null, ptr %7, align 8
  br label %193

193:                                              ; preds = %192
  br label %194

194:                                              ; preds = %193
  %195 = load i32, ptr %8, align 4
  %196 = icmp ne i32 %195, 0
  br i1 %196, label %197, label %199

197:                                              ; preds = %194
  %198 = call i32 (ptr, ...) @error(ptr noundef @.str.25, ptr noundef @__func__.xcpuinfo_mac_to_abs)
  br label %199

199:                                              ; preds = %197, %194
  %200 = load i32, ptr %8, align 4
  store i32 1, ptr %10, align 4
  call void @llvm.lifetime.end.p0(i64 4, ptr %8) #9
  call void @llvm.lifetime.end.p0(i64 8, ptr %7) #9
  call void @llvm.lifetime.end.p0(i64 8, ptr %6) #9
  call void @llvm.lifetime.end.p0(i64 8, ptr %5) #9
  ret i32 %200

201:                                              ; preds = %103
  unreachable
}