; Function Attrs: nounwind uwtable
define dso_local range(i32 -1, 1) i32 @xcpuinfo_mac_to_abs(ptr noundef %0, ptr noundef writeonly captures(none) %1) local_unnamed_addr #0 {
  %3 = alloca ptr, align 8
  %4 = alloca ptr, align 8
  %5 = alloca ptr, align 8
  call void @llvm.lifetime.start.p0(i64 8, ptr nonnull %3) #12
  call void @llvm.lifetime.start.p0(i64 8, ptr nonnull %4) #12
  call void @llvm.lifetime.start.p0(i64 8, ptr nonnull %5) #12
  %6 = load i32, ptr @xcpuinfo_mac_to_abs.total_cores, align 4
  %7 = icmp eq i32 %6, -1
  br i1 %7, label %8, label %._crit_edge52

._crit_edge52:                                    ; preds = %2
  %.pre = load i32, ptr @xcpuinfo_mac_to_abs.total_cpus, align 4
  br label %20

8:                                                ; preds = %2
  %9 = load ptr, ptr @conf, align 8
  %10 = getelementptr inbounds nuw i8, ptr %9, i64 4156
  %11 = load i16, ptr %10, align 4
  %12 = zext i16 %11 to i32
  %13 = getelementptr inbounds nuw i8, ptr %9, i64 4184
  %14 = load i16, ptr %13, align 8
  %15 = zext i16 %14 to i32
  %16 = mul nuw nsw i32 %15, %12
  store i32 %16, ptr @xcpuinfo_mac_to_abs.total_cores, align 4
  %17 = getelementptr inbounds nuw i8, ptr %9, i64 4232
  %18 = load i16, ptr %17, align 8
  %19 = zext i16 %18 to i32
  store i32 %19, ptr @xcpuinfo_mac_to_abs.total_cpus, align 4
  br label %20

20:                                               ; preds = %._crit_edge52, %8
  %21 = phi i32 [ %.pre, %._crit_edge52 ], [ %19, %8 ]
  %22 = sext i32 %21 to i64
  %23 = tail call ptr @bit_alloc(i64 noundef %22) #12
  store ptr %23, ptr %3, align 8
  %24 = load i32, ptr @xcpuinfo_mac_to_abs.total_cpus, align 4
  %25 = sext i32 %24 to i64
  %26 = tail call ptr @bit_alloc(i64 noundef %25) #12
  store ptr %26, ptr %4, align 8
  %27 = load i32, ptr @xcpuinfo_mac_to_abs.total_cores, align 4
  %28 = sext i32 %27 to i64
  %29 = tail call ptr @bit_alloc(i64 noundef %28) #12
  store ptr %29, ptr %5, align 8
  %30 = icmp ne ptr %23, null
  %31 = icmp ne ptr %26, null
  %or.cond = select i1 %30, i1 %31, i1 false
  br i1 %or.cond, label %32, label %thread-pre-split

32:                                               ; preds = %20
  %33 = tail call i32 @bit_unfmt(ptr noundef nonnull %23, ptr noundef %0) #12
  %.not = icmp eq i32 %33, 0
  br i1 %.not, label %.preheader41, label %thread-pre-split.thread

.preheader41:                                     ; preds = %32
  %34 = load i32, ptr @xcpuinfo_mac_to_abs.total_cores, align 4
  %35 = icmp sgt i32 %34, 0
  br i1 %35, label %.preheader40.lr.ph, label %._crit_edge47

.preheader40.lr.ph:                               ; preds = %.preheader41
  %.pre53 = load ptr, ptr @conf, align 8
  br label %.preheader40

.preheader40:                                     ; preds = %.preheader40.lr.ph, %._crit_edge
  %36 = phi i32 [ %34, %.preheader40.lr.ph ], [ %41, %._crit_edge ]
  %37 = phi ptr [ %.pre53, %.preheader40.lr.ph ], [ %42, %._crit_edge ]
  %.02843 = phi i32 [ 0, %.preheader40.lr.ph ], [ %43, %._crit_edge ]
  %38 = getelementptr inbounds nuw i8, ptr %37, i64 4158
  %39 = load i16, ptr %38, align 2
  %.not48 = icmp eq i16 %39, 0
  br i1 %.not48, label %._crit_edge, label %.lr.ph

.preheader39:                                     ; preds = %._crit_edge
  %40 = icmp sgt i32 %41, 0
  br i1 %40, label %.preheader.lr.ph, label %._crit_edge47

.preheader.lr.ph:                                 ; preds = %.preheader39
  %.pre56 = load ptr, ptr @conf, align 8
  br label %.preheader

._crit_edge.loopexit:                             ; preds = %65
  %.pre54 = load i32, ptr @xcpuinfo_mac_to_abs.total_cores, align 4
  br label %._crit_edge

._crit_edge:                                      ; preds = %._crit_edge.loopexit, %.preheader40
  %41 = phi i32 [ %.pre54, %._crit_edge.loopexit ], [ %36, %.preheader40 ]
  %42 = phi ptr [ %67, %._crit_edge.loopexit ], [ %37, %.preheader40 ]
  %43 = add nuw nsw i32 %.02843, 1
  %44 = icmp slt i32 %43, %41
  br i1 %44, label %.preheader40, label %.preheader39, !llvm.loop !27

.lr.ph:                                           ; preds = %.preheader40, %65
  %45 = phi ptr [ %67, %65 ], [ %37, %.preheader40 ]
  %.02942 = phi i32 [ %66, %65 ], [ 0, %.preheader40 ]
  %46 = getelementptr inbounds nuw i8, ptr %45, i64 4204
  %47 = load i16, ptr %46, align 4
  %48 = zext i16 %47 to i32
  %49 = mul nuw nsw i32 %.02843, %48
  %50 = add nuw nsw i32 %49, %.02942
  %51 = load i32, ptr @xcpuinfo_mac_to_abs.total_cpus, align 4
  %52 = srem i32 %50, %51
  %53 = zext nneg i32 %52 to i64
  %54 = tail call i32 @slurm_bit_test(ptr noundef nonnull %23, i64 noundef %53) #12
  %.not34 = icmp eq i32 %54, 0
  br i1 %.not34, label %65, label %55

55:                                               ; preds = %.lr.ph
  %56 = load ptr, ptr @conf, align 8
  %57 = getelementptr inbounds nuw i8, ptr %56, i64 4248
  %58 = load ptr, ptr %57, align 8
  %59 = getelementptr inbounds nuw i16, ptr %58, i64 %53
  %60 = load i16, ptr %59, align 2
  %61 = zext i16 %60 to i32
  %62 = load i32, ptr @xcpuinfo_mac_to_abs.total_cpus, align 4
  %63 = srem i32 %61, %62
  %64 = zext nneg i32 %63 to i64
  tail call void @bit_set(ptr noundef nonnull %26, i64 noundef %64) #12
  br label %65

65:                                               ; preds = %.lr.ph, %55
  %66 = add nuw nsw i32 %.02942, 1
  %67 = load ptr, ptr @conf, align 8
  %68 = getelementptr inbounds nuw i8, ptr %67, i64 4158
  %69 = load i16, ptr %68, align 2
  %70 = zext i16 %69 to i32
  %71 = icmp samesign ult i32 %66, %70
  br i1 %71, label %.lr.ph, label %._crit_edge.loopexit, !llvm.loop !28

.preheader:                                       ; preds = %.preheader.lr.ph, %.loopexit
  %72 = phi ptr [ %.pre56, %.preheader.lr.ph ], [ %100, %.loopexit ]
  %indvars.iv = phi i64 [ 0, %.preheader.lr.ph ], [ %indvars.iv.next, %.loopexit ]
  %73 = getelementptr inbounds nuw i8, ptr %72, i64 4158
  %74 = load i16, ptr %73, align 2
  %.not49 = icmp eq i16 %74, 0
  br i1 %.not49, label %.loopexit, label %.critedge.preheader

.critedge.preheader:                              ; preds = %.preheader
  %75 = trunc nuw nsw i64 %indvars.iv to i32
  br label %.critedge

._crit_edge47:                                    ; preds = %.loopexit, %.preheader41, %.preheader39
  %.lcssa = phi i32 [ %41, %.preheader39 ], [ %34, %.preheader41 ], [ %101, %.loopexit ]
  %76 = mul nsw i32 %.lcssa, 6
  %77 = sext i32 %76 to i64
  %78 = tail call ptr @slurm_xcalloc(i64 noundef 1, i64 noundef %77, i1 noundef zeroext true, i1 noundef zeroext false, ptr noundef nonnull @.str.14, i32 noundef 1301, ptr noundef nonnull @__func__.xcpuinfo_mac_to_abs) #12
  store ptr %78, ptr %1, align 8
  %79 = load i32, ptr @xcpuinfo_mac_to_abs.total_cores, align 4
  %80 = mul nsw i32 %79, 6
  %81 = tail call ptr @bit_fmt(ptr noundef %78, i32 noundef %80, ptr noundef %29) #12
  br label %thread-pre-split

82:                                               ; preds = %.critedge
  %83 = add nuw nsw i32 %.02644, 1
  %84 = load ptr, ptr @conf, align 8
  %85 = getelementptr inbounds nuw i8, ptr %84, i64 4158
  %86 = load i16, ptr %85, align 2
  %87 = zext i16 %86 to i32
  %88 = icmp samesign ult i32 %83, %87
  br i1 %88, label %.critedge, label %.loopexit, !llvm.loop !29

.critedge:                                        ; preds = %.critedge.preheader, %82
  %89 = phi ptr [ %84, %82 ], [ %72, %.critedge.preheader ]
  %.02644 = phi i32 [ %83, %82 ], [ 0, %.critedge.preheader ]
  %90 = getelementptr inbounds nuw i8, ptr %89, i64 4204
  %91 = load i16, ptr %90, align 4
  %92 = zext i16 %91 to i32
  %93 = mul nuw nsw i32 %75, %92
  %94 = add nuw nsw i32 %93, %.02644
  %95 = load i32, ptr @xcpuinfo_mac_to_abs.total_cpus, align 4
  %96 = srem i32 %94, %95
  %97 = zext nneg i32 %96 to i64
  %98 = tail call i32 @slurm_bit_test(ptr noundef nonnull %26, i64 noundef %97) #12
  %.not33 = icmp eq i32 %98, 0
  br i1 %.not33, label %82, label %99

99:                                               ; preds = %.critedge
  tail call void @bit_set(ptr noundef %29, i64 noundef %indvars.iv) #12
  %.pre55 = load ptr, ptr @conf, align 8
  br label %.loopexit

.loopexit:                                        ; preds = %82, %.preheader, %99
  %100 = phi ptr [ %72, %.preheader ], [ %.pre55, %99 ], [ %84, %82 ]
  %indvars.iv.next = add nuw nsw i64 %indvars.iv, 1
  %101 = load i32, ptr @xcpuinfo_mac_to_abs.total_cores, align 4
  %102 = sext i32 %101 to i64
  %103 = icmp slt i64 %indvars.iv.next, %102
  br i1 %103, label %.preheader, label %._crit_edge47, !llvm.loop !30

thread-pre-split:                                 ; preds = %._crit_edge47, %20
  %.0 = phi i32 [ -1, %20 ], [ 0, %._crit_edge47 ]
  %.not35 = icmp eq ptr %23, null
  br i1 %.not35, label %104, label %thread-pre-split.thread

thread-pre-split.thread:                          ; preds = %32, %thread-pre-split
  %.062 = phi i32 [ %.0, %thread-pre-split ], [ -1, %32 ]
  %.not3860 = phi i1 [ %or.cond, %thread-pre-split ], [ false, %32 ]
  call void @slurm_bit_free(ptr noundef nonnull %3) #12
  br label %104

104:                                              ; preds = %thread-pre-split.thread, %thread-pre-split
  %.063 = phi i32 [ %.062, %thread-pre-split.thread ], [ %.0, %thread-pre-split ]
  %.not3861 = phi i1 [ %.not3860, %thread-pre-split.thread ], [ %or.cond, %thread-pre-split ]
  store ptr null, ptr %3, align 8
  %.not36 = icmp eq ptr %26, null
  br i1 %.not36, label %106, label %105

105:                                              ; preds = %104
  call void @slurm_bit_free(ptr noundef nonnull %4) #12
  br label %106

106:                                              ; preds = %105, %104
  store ptr null, ptr %4, align 8
  %.not37 = icmp eq ptr %29, null
  br i1 %.not37, label %108, label %107

107:                                              ; preds = %106
  call void @slurm_bit_free(ptr noundef nonnull %5) #12
  br label %108

108:                                              ; preds = %107, %106
  store ptr null, ptr %5, align 8
  br i1 %.not3861, label %111, label %109

109:                                              ; preds = %108
  %110 = call i32 (ptr, ...) @error(ptr noundef nonnull @.str.25, ptr noundef nonnull @__func__.xcpuinfo_mac_to_abs) #12
  br label %111

111:                                              ; preds = %109, %108
  call void @llvm.lifetime.end.p0(i64 8, ptr nonnull %5) #12
  call void @llvm.lifetime.end.p0(i64 8, ptr nonnull %4) #12
  call void @llvm.lifetime.end.p0(i64 8, ptr nonnull %3) #12
  ret i32 %.063
}